target datalayout = "e-m:e-p270:32:32-p271:32:32-p272:64:64-i64:64-i128:128-f80:128-n8:16:32:64-S128"
target triple = "x86_64-pc-linux-gnu"

%struct.JNINativeInterface_ = type { ptr, ptr, ptr, ptr, ptr, ptr, ptr, ptr, ptr, ptr, ptr, ptr, ptr, ptr, ptr, ptr, ptr, ptr, ptr, ptr, ptr, ptr, ptr, ptr, ptr, ptr, ptr, ptr, ptr, ptr, ptr, ptr, ptr, ptr, ptr, ptr, ptr, ptr, ptr, ptr, ptr, ptr, ptr, ptr, ptr, ptr, ptr, ptr, ptr, ptr, ptr, ptr, ptr, ptr, ptr, ptr, ptr, ptr, ptr, ptr, ptr, ptr, ptr, ptr, ptr, ptr, ptr, ptr, ptr, ptr, ptr, ptr, ptr, ptr, ptr, ptr, ptr, ptr, ptr, ptr, ptr, ptr, ptr, ptr, ptr, ptr, ptr, ptr, ptr, ptr, ptr, ptr, ptr, ptr, ptr, ptr, ptr, ptr, ptr, ptr, ptr, ptr, ptr, ptr, ptr, ptr, ptr, ptr, ptr, ptr, ptr, ptr, ptr, ptr, ptr, ptr, ptr, ptr, ptr, ptr, ptr, ptr, ptr, ptr, ptr, ptr, ptr, ptr, ptr, ptr, ptr, ptr, ptr, ptr, ptr, ptr, ptr, ptr, ptr, ptr, ptr, ptr, ptr, ptr, ptr, ptr, ptr, ptr, ptr, ptr, ptr, ptr, ptr, ptr, ptr, ptr, ptr, ptr, ptr, ptr, ptr, ptr, ptr, ptr, ptr, ptr, ptr, ptr, ptr, ptr, ptr, ptr, ptr, ptr, ptr, ptr, ptr, ptr, ptr, ptr, ptr, ptr, ptr, ptr, ptr, ptr, ptr, ptr, ptr, ptr, ptr, ptr, ptr, ptr, ptr, ptr, ptr, ptr, ptr, ptr, ptr, ptr, ptr, ptr, ptr, ptr, ptr, ptr, ptr, ptr, ptr, ptr, ptr, ptr, ptr, ptr, ptr, ptr, ptr, ptr, ptr, ptr, ptr, ptr, ptr, ptr, ptr, ptr, ptr, ptr, ptr, ptr, ptr, ptr, ptr }
%struct.sockaddr_in = type { i16, i16, %struct.in_addr, [8 x i8] }
%struct.in_addr = type { i32 }
%struct.sockaddr_in6 = type { i16, i16, i32, %struct.in6_addr, i32 }
%struct.in6_addr = type { %union.anon }
%union.anon = type { [4 x i32] }
%union.SOCKETADDRESS = type { %struct.sockaddr_in6 }

@.str.3 = private unnamed_addr constant [30 x i8] c"java/net/UnknownHostException\00", align 1

; Function Attrs: nounwind uwtable
define ptr @Java_java_net_Inet6AddressImpl_getHostByAddr(ptr noundef %0, ptr noundef %1, ptr noundef %2) #0 {
  %4 = alloca ptr, align 8
  %5 = alloca ptr, align 8
  %6 = alloca ptr, align 8
  %7 = alloca ptr, align 8
  %8 = alloca [1026 x i8], align 16
  %9 = alloca i32, align 4
  %10 = alloca [16 x i8], align 16
  %11 = alloca %union.SOCKETADDRESS, align 4
  %12 = alloca i32, align 4
  store ptr %0, ptr %4, align 8
  store ptr %1, ptr %5, align 8
  store ptr %2, ptr %6, align 8
  store ptr null, ptr %7, align 8
  store i32 0, ptr %9, align 4
  call void @llvm.memset.p0.i64(ptr align 4 %11, i8 0, i64 28, i1 false)
  %13 = load ptr, ptr %4, align 8
  %14 = load ptr, ptr %13, align 8
  %15 = getelementptr inbounds %struct.JNINativeInterface_, ptr %14, i32 0, i32 171
  %16 = load ptr, ptr %15, align 8
  %17 = load ptr, ptr %4, align 8
  %18 = load ptr, ptr %6, align 8
  %19 = call i32 %16(ptr noundef %17, ptr noundef %18)
  %20 = icmp eq i32 %19, 4
  br i1 %20, label %21, label %59

21:                                               ; preds = %3
  %22 = load ptr, ptr %4, align 8
  %23 = load ptr, ptr %22, align 8
  %24 = getelementptr inbounds %struct.JNINativeInterface_, ptr %23, i32 0, i32 200
  %25 = load ptr, ptr %24, align 8
  %26 = load ptr, ptr %4, align 8
  %27 = load ptr, ptr %6, align 8
  %28 = getelementptr inbounds [16 x i8], ptr %10, i64 0, i64 0
  call void %25(ptr noundef %26, ptr noundef %27, i32 noundef 0, i32 noundef 4, ptr noundef %28)
  %29 = getelementptr inbounds [16 x i8], ptr %10, i64 0, i64 0
  %30 = load i8, ptr %29, align 16
  %31 = sext i8 %30 to i32
  %32 = shl i32 %31, 24
  %33 = and i32 %32, -16777216
  store i32 %33, ptr %12, align 4
  %34 = getelementptr inbounds [16 x i8], ptr %10, i64 0, i64 1
  %35 = load i8, ptr %34, align 1
  %36 = sext i8 %35 to i32
  %37 = shl i32 %36, 16
  %38 = and i32 %37, 16711680
  %39 = load i32, ptr %12, align 4
  %40 = or i32 %39, %38
  store i32 %40, ptr %12, align 4
  %41 = getelementptr inbounds [16 x i8], ptr %10, i64 0, i64 2
  %42 = load i8, ptr %41, align 2
  %43 = sext i8 %42 to i32
  %44 = shl i32 %43, 8
  %45 = and i32 %44, 65280
  %46 = load i32, ptr %12, align 4
  %47 = or i32 %46, %45
  store i32 %47, ptr %12, align 4
  %48 = getelementptr inbounds [16 x i8], ptr %10, i64 0, i64 3
  %49 = load i8, ptr %48, align 1
  %50 = sext i8 %49 to i32
  %51 = and i32 %50, 255
  %52 = load i32, ptr %12, align 4
  %53 = or i32 %52, %51
  store i32 %53, ptr %12, align 4
  %54 = load i32, ptr %12, align 4
  %55 = call i32 @htonl(i32 noundef %54) #9
  %56 = getelementptr inbounds %struct.sockaddr_in, ptr %11, i32 0, i32 2
  %57 = getelementptr inbounds %struct.in_addr, ptr %56, i32 0, i32 0
  store i32 %55, ptr %57, align 4
  %58 = getelementptr inbounds %struct.sockaddr_in, ptr %11, i32 0, i32 0
  store i16 2, ptr %58, align 4
  store i32 16, ptr %9, align 4
  br label %70

59:                                               ; preds = %3
  %60 = load ptr, ptr %4, align 8
  %61 = load ptr, ptr %60, align 8
  %62 = getelementptr inbounds %struct.JNINativeInterface_, ptr %61, i32 0, i32 200
  %63 = load ptr, ptr %62, align 8
  %64 = load ptr, ptr %4, align 8
  %65 = load ptr, ptr %6, align 8
  %66 = getelementptr inbounds [16 x i8], ptr %10, i64 0, i64 0
  call void %63(ptr noundef %64, ptr noundef %65, i32 noundef 0, i32 noundef 16, ptr noundef %66)
  %67 = getelementptr inbounds %struct.sockaddr_in6, ptr %11, i32 0, i32 3
  %68 = getelementptr inbounds [16 x i8], ptr %10, i64 0, i64 0
  call void @llvm.memcpy.p0.p0.i64(ptr align 4 %67, ptr align 16 %68, i64 16, i1 false)
  %69 = getelementptr inbounds %struct.sockaddr_in6, ptr %11, i32 0, i32 0
  store i16 10, ptr %69, align 4
  store i32 28, ptr %9, align 4
  br label %70

70:                                               ; preds = %59, %21
  %71 = load i32, ptr %9, align 4
  %72 = getelementptr inbounds [1026 x i8], ptr %8, i64 0, i64 0
  %73 = call i32 @getnameinfo(ptr noundef %11, i32 noundef %71, ptr noundef %72, i32 noundef 1026, ptr noundef null, i32 noundef 0, i32 noundef 8)
  %74 = icmp ne i32 %73, 0
  br i1 %74, label %75, label %77

75:                                               ; preds = %70
  %76 = load ptr, ptr %4, align 8
  call void @JNU_ThrowByName(ptr noundef %76, ptr noundef @.str.3, ptr noundef null)
  br label %90

77:                                               ; preds = %70
  %78 = load ptr, ptr %4, align 8
  %79 = load ptr, ptr %78, align 8
  %80 = getelementptr inbounds %struct.JNINativeInterface_, ptr %79, i32 0, i32 167
  %81 = load ptr, ptr %80, align 8
  %82 = load ptr, ptr %4, align 8
  %83 = getelementptr inbounds [1026 x i8], ptr %8, i64 0, i64 0
  %84 = call ptr %81(ptr noundef %82, ptr noundef %83)
  store ptr %84, ptr %7, align 8
  %85 = load ptr, ptr %7, align 8
  %86 = icmp eq ptr %85, null
  br i1 %86, label %87, label %89

87:                                               ; preds = %77
  %88 = load ptr, ptr %4, align 8
  call void @JNU_ThrowByName(ptr noundef %88, ptr noundef @.str.3, ptr noundef null)
  br label %89

89:                                               ; preds = %87, %77
  br label %90

90:                                               ; preds = %89, %75
  %91 = load ptr, ptr %7, align 8
  ret ptr %91
}