; Function Attrs: nounwind uwtable
define ptr @Java_java_net_Inet6AddressImpl_getHostByAddr(ptr noundef %0, ptr nocapture noundef readnone %1, ptr noundef %2) local_unnamed_addr #0 {
  %4 = alloca [1026 x i8], align 16
  %5 = alloca [16 x i8], align 16
  %6 = alloca %union.SOCKETADDRESS, align 4
  call void @llvm.memset.p0.i64(ptr noundef nonnull align 4 dereferenceable(28) %6, i8 0, i64 28, i1 false)
  %7 = load ptr, ptr %0, align 8
  %8 = getelementptr inbounds i8, ptr %7, i64 1368
  %9 = load ptr, ptr %8, align 8
  %10 = tail call i32 %9(ptr noundef nonnull %0, ptr noundef %2) #11
  %11 = icmp eq i32 %10, 4
  %12 = load ptr, ptr %0, align 8
  %13 = getelementptr inbounds i8, ptr %12, i64 1600
  %14 = load ptr, ptr %13, align 8
  br i1 %11, label %15, label %37

15:                                               ; preds = %3
  call void %14(ptr noundef nonnull %0, ptr noundef %2, i32 noundef 0, i32 noundef 4, ptr noundef nonnull %5) #11
  %16 = load i8, ptr %5, align 16
  %17 = sext i8 %16 to i32
  %18 = shl nsw i32 %17, 24
  %19 = getelementptr inbounds i8, ptr %5, i64 1
  %20 = load i8, ptr %19, align 1
  %21 = sext i8 %20 to i32
  %22 = shl nsw i32 %21, 16
  %23 = and i32 %22, 16711680
  %24 = or disjoint i32 %23, %18
  %25 = getelementptr inbounds i8, ptr %5, i64 2
  %26 = load i8, ptr %25, align 2
  %27 = sext i8 %26 to i32
  %28 = shl nsw i32 %27, 8
  %29 = and i32 %28, 65280
  %30 = or disjoint i32 %24, %29
  %31 = getelementptr inbounds i8, ptr %5, i64 3
  %32 = load i8, ptr %31, align 1
  %33 = zext i8 %32 to i32
  %34 = or disjoint i32 %30, %33
  %35 = call i32 @htonl(i32 noundef %34) #13
  %36 = getelementptr inbounds i8, ptr %6, i64 4
  store i32 %35, ptr %36, align 4
  br label %39

37:                                               ; preds = %3
  call void %14(ptr noundef nonnull %0, ptr noundef %2, i32 noundef 0, i32 noundef 16, ptr noundef nonnull %5) #11
  %38 = getelementptr inbounds i8, ptr %6, i64 8
  call void @llvm.memcpy.p0.p0.i64(ptr noundef nonnull align 4 dereferenceable(16) %38, ptr noundef nonnull align 16 dereferenceable(16) %5, i64 16, i1 false)
  br label %39

39:                                               ; preds = %37, %15
  %storemerge = phi i16 [ 10, %37 ], [ 2, %15 ]
  %.019 = phi i32 [ 28, %37 ], [ 16, %15 ]
  store i16 %storemerge, ptr %6, align 4
  %40 = call i32 @getnameinfo(ptr noundef nonnull %6, i32 noundef %.019, ptr noundef nonnull %4, i32 noundef 1026, ptr noundef null, i32 noundef 0, i32 noundef 8) #11
  %.not = icmp eq i32 %40, 0
  br i1 %.not, label %41, label %.sink.split

41:                                               ; preds = %39
  %42 = load ptr, ptr %0, align 8
  %43 = getelementptr inbounds i8, ptr %42, i64 1336
  %44 = load ptr, ptr %43, align 8
  %45 = call ptr %44(ptr noundef nonnull %0, ptr noundef nonnull %4) #11
  %46 = icmp eq ptr %45, null
  br i1 %46, label %.sink.split, label %47

.sink.split:                                      ; preds = %41, %39
  call void @JNU_ThrowByName(ptr noundef nonnull %0, ptr noundef nonnull @.str.3, ptr noundef null) #11
  br label %47

47:                                               ; preds = %.sink.split, %41
  %.0 = phi ptr [ %45, %41 ], [ null, %.sink.split ]
  ret ptr %.0
}